(dp0
S'Info'
p1
(lp2
S'2014-06-29 13:57:52.034671'
p3
aS'OOP'
p4
aI00
asS'Englisch'
p5
(lp6
S'2014-06-29 00:00:00'
p7
aS'BLF'
p8
aI01
asS'Deutsch'
p9
(lp10
S'2014-06-29 00:00:00'
p11
aS'BLF'
p12
aI01
asS'Mathematik'
p13
(lp14
S'2014-06-30 00:00:00'
p15
aS'BLF'
p16
aI01
as.