(dp0
S'Englisch'
p1
(lp2
S'2014-06-29 00:00:00'
p3
aS'BLF'
p4
aI01
asS'Mathematik'
p5
(lp6
S'2014-06-30 00:00:00'
p7
aS'BLF'
p8
aI01
asS'Deutsch'
p9
(lp10
S'2014-06-29 00:00:00'
p11
aS'BLF'
p12
aI01
as.